target datalayout = "e-m:e-p270:32:32-p271:32:32-p272:64:64-i64:64-i128:128-f80:128-n8:16:32:64-S128"
target triple = "x86_64-pc-linux-gnu"

%"class.cvc5::internal::NodeTemplate" = type { ptr }
%"class.cvc5::internal::TypeNode" = type { ptr }
%"class.cvc5::internal::Options" = type { %"class.std::unique_ptr.146", %"class.std::unique_ptr.154", %"class.std::unique_ptr.162", %"class.std::unique_ptr.170", %"class.std::unique_ptr.178", %"class.std::unique_ptr.186", %"class.std::unique_ptr.194", %"class.std::unique_ptr.202", %"class.std::unique_ptr.210", %"class.std::unique_ptr.218", %"class.std::unique_ptr.226", %"class.std::unique_ptr.234", %"class.std::unique_ptr.242", %"class.std::unique_ptr.250", %"class.std::unique_ptr.258", %"class.std::unique_ptr.266", %"class.std::unique_ptr.274", %"class.std::unique_ptr.282", %"class.std::unique_ptr.290", %"class.std::unique_ptr.298", %"class.std::unique_ptr.306", %"class.std::unique_ptr.314", %"class.std::unique_ptr.322", %"class.std::unique_ptr.330", %"class.std::unique_ptr.338", ptr, ptr, ptr, ptr, ptr, ptr, ptr, ptr, ptr, ptr, ptr, ptr, ptr, ptr, ptr, ptr, ptr, ptr, ptr, ptr, ptr, ptr, ptr, ptr, ptr, %"class.std::unique_ptr.346" }
%"class.std::unique_ptr.146" = type { %"struct.std::__uniq_ptr_data.147" }
%"struct.std::__uniq_ptr_data.147" = type { %"class.std::__uniq_ptr_impl.148" }
%"class.std::__uniq_ptr_impl.148" = type { %"class.std::tuple.149" }
%"class.std::tuple.149" = type { %"struct.std::_Tuple_impl.150" }
%"struct.std::_Tuple_impl.150" = type { %"struct.std::_Head_base.153" }
%"struct.std::_Head_base.153" = type { ptr }
%"class.std::unique_ptr.154" = type { %"struct.std::__uniq_ptr_data.155" }
%"struct.std::__uniq_ptr_data.155" = type { %"class.std::__uniq_ptr_impl.156" }
%"class.std::__uniq_ptr_impl.156" = type { %"class.std::tuple.157" }
%"class.std::tuple.157" = type { %"struct.std::_Tuple_impl.158" }
%"struct.std::_Tuple_impl.158" = type { %"struct.std::_Head_base.161" }
%"struct.std::_Head_base.161" = type { ptr }
%"class.std::unique_ptr.162" = type { %"struct.std::__uniq_ptr_data.163" }
%"struct.std::__uniq_ptr_data.163" = type { %"class.std::__uniq_ptr_impl.164" }
%"class.std::__uniq_ptr_impl.164" = type { %"class.std::tuple.165" }
%"class.std::tuple.165" = type { %"struct.std::_Tuple_impl.166" }
%"struct.std::_Tuple_impl.166" = type { %"struct.std::_Head_base.169" }
%"struct.std::_Head_base.169" = type { ptr }
%"class.std::unique_ptr.170" = type { %"struct.std::__uniq_ptr_data.171" }
%"struct.std::__uniq_ptr_data.171" = type { %"class.std::__uniq_ptr_impl.172" }
%"class.std::__uniq_ptr_impl.172" = type { %"class.std::tuple.173" }
%"class.std::tuple.173" = type { %"struct.std::_Tuple_impl.174" }
%"struct.std::_Tuple_impl.174" = type { %"struct.std::_Head_base.177" }
%"struct.std::_Head_base.177" = type { ptr }
%"class.std::unique_ptr.178" = type { %"struct.std::__uniq_ptr_data.179" }
%"struct.std::__uniq_ptr_data.179" = type { %"class.std::__uniq_ptr_impl.180" }
%"class.std::__uniq_ptr_impl.180" = type { %"class.std::tuple.181" }
%"class.std::tuple.181" = type { %"struct.std::_Tuple_impl.182" }
%"struct.std::_Tuple_impl.182" = type { %"struct.std::_Head_base.185" }
%"struct.std::_Head_base.185" = type { ptr }
%"class.std::unique_ptr.186" = type { %"struct.std::__uniq_ptr_data.187" }
%"struct.std::__uniq_ptr_data.187" = type { %"class.std::__uniq_ptr_impl.188" }
%"class.std::__uniq_ptr_impl.188" = type { %"class.std::tuple.189" }
%"class.std::tuple.189" = type { %"struct.std::_Tuple_impl.190" }
%"struct.std::_Tuple_impl.190" = type { %"struct.std::_Head_base.193" }
%"struct.std::_Head_base.193" = type { ptr }
%"class.std::unique_ptr.194" = type { %"struct.std::__uniq_ptr_data.195" }
%"struct.std::__uniq_ptr_data.195" = type { %"class.std::__uniq_ptr_impl.196" }
%"class.std::__uniq_ptr_impl.196" = type { %"class.std::tuple.197" }
%"class.std::tuple.197" = type { %"struct.std::_Tuple_impl.198" }
%"struct.std::_Tuple_impl.198" = type { %"struct.std::_Head_base.201" }
%"struct.std::_Head_base.201" = type { ptr }
%"class.std::unique_ptr.202" = type { %"struct.std::__uniq_ptr_data.203" }
%"struct.std::__uniq_ptr_data.203" = type { %"class.std::__uniq_ptr_impl.204" }
%"class.std::__uniq_ptr_impl.204" = type { %"class.std::tuple.205" }
%"class.std::tuple.205" = type { %"struct.std::_Tuple_impl.206" }
%"struct.std::_Tuple_impl.206" = type { %"struct.std::_Head_base.209" }
%"struct.std::_Head_base.209" = type { ptr }
%"class.std::unique_ptr.210" = type { %"struct.std::__uniq_ptr_data.211" }
%"struct.std::__uniq_ptr_data.211" = type { %"class.std::__uniq_ptr_impl.212" }
%"class.std::__uniq_ptr_impl.212" = type { %"class.std::tuple.213" }
%"class.std::tuple.213" = type { %"struct.std::_Tuple_impl.214" }
%"struct.std::_Tuple_impl.214" = type { %"struct.std::_Head_base.217" }
%"struct.std::_Head_base.217" = type { ptr }
%"class.std::unique_ptr.218" = type { %"struct.std::__uniq_ptr_data.219" }
%"struct.std::__uniq_ptr_data.219" = type { %"class.std::__uniq_ptr_impl.220" }
%"class.std::__uniq_ptr_impl.220" = type { %"class.std::tuple.221" }
%"class.std::tuple.221" = type { %"struct.std::_Tuple_impl.222" }
%"struct.std::_Tuple_impl.222" = type { %"struct.std::_Head_base.225" }
%"struct.std::_Head_base.225" = type { ptr }
%"class.std::unique_ptr.226" = type { %"struct.std::__uniq_ptr_data.227" }
%"struct.std::__uniq_ptr_data.227" = type { %"class.std::__uniq_ptr_impl.228" }
%"class.std::__uniq_ptr_impl.228" = type { %"class.std::tuple.229" }
%"class.std::tuple.229" = type { %"struct.std::_Tuple_impl.230" }
%"struct.std::_Tuple_impl.230" = type { %"struct.std::_Head_base.233" }
%"struct.std::_Head_base.233" = type { ptr }
%"class.std::unique_ptr.234" = type { %"struct.std::__uniq_ptr_data.235" }
%"struct.std::__uniq_ptr_data.235" = type { %"class.std::__uniq_ptr_impl.236" }
%"class.std::__uniq_ptr_impl.236" = type { %"class.std::tuple.237" }
%"class.std::tuple.237" = type { %"struct.std::_Tuple_impl.238" }
%"struct.std::_Tuple_impl.238" = type { %"struct.std::_Head_base.241" }
%"struct.std::_Head_base.241" = type { ptr }
%"class.std::unique_ptr.242" = type { %"struct.std::__uniq_ptr_data.243" }
%"struct.std::__uniq_ptr_data.243" = type { %"class.std::__uniq_ptr_impl.244" }
%"class.std::__uniq_ptr_impl.244" = type { %"class.std::tuple.245" }
%"class.std::tuple.245" = type { %"struct.std::_Tuple_impl.246" }
%"struct.std::_Tuple_impl.246" = type { %"struct.std::_Head_base.249" }
%"struct.std::_Head_base.249" = type { ptr }
%"class.std::unique_ptr.250" = type { %"struct.std::__uniq_ptr_data.251" }
%"struct.std::__uniq_ptr_data.251" = type { %"class.std::__uniq_ptr_impl.252" }
%"class.std::__uniq_ptr_impl.252" = type { %"class.std::tuple.253" }
%"class.std::tuple.253" = type { %"struct.std::_Tuple_impl.254" }
%"struct.std::_Tuple_impl.254" = type { %"struct.std::_Head_base.257" }
%"struct.std::_Head_base.257" = type { ptr }
%"class.std::unique_ptr.258" = type { %"struct.std::__uniq_ptr_data.259" }
%"struct.std::__uniq_ptr_data.259" = type { %"class.std::__uniq_ptr_impl.260" }
%"class.std::__uniq_ptr_impl.260" = type { %"class.std::tuple.261" }
%"class.std::tuple.261" = type { %"struct.std::_Tuple_impl.262" }
%"struct.std::_Tuple_impl.262" = type { %"struct.std::_Head_base.265" }
%"struct.std::_Head_base.265" = type { ptr }
%"class.std::unique_ptr.266" = type { %"struct.std::__uniq_ptr_data.267" }
%"struct.std::__uniq_ptr_data.267" = type { %"class.std::__uniq_ptr_impl.268" }
%"class.std::__uniq_ptr_impl.268" = type { %"class.std::tuple.269" }
%"class.std::tuple.269" = type { %"struct.std::_Tuple_impl.270" }
%"struct.std::_Tuple_impl.270" = type { %"struct.std::_Head_base.273" }
%"struct.std::_Head_base.273" = type { ptr }
%"class.std::unique_ptr.274" = type { %"struct.std::__uniq_ptr_data.275" }
%"struct.std::__uniq_ptr_data.275" = type { %"class.std::__uniq_ptr_impl.276" }
%"class.std::__uniq_ptr_impl.276" = type { %"class.std::tuple.277" }
%"class.std::tuple.277" = type { %"struct.std::_Tuple_impl.278" }
%"struct.std::_Tuple_impl.278" = type { %"struct.std::_Head_base.281" }
%"struct.std::_Head_base.281" = type { ptr }
%"class.std::unique_ptr.282" = type { %"struct.std::__uniq_ptr_data.283" }
%"struct.std::__uniq_ptr_data.283" = type { %"class.std::__uniq_ptr_impl.284" }
%"class.std::__uniq_ptr_impl.284" = type { %"class.std::tuple.285" }
%"class.std::tuple.285" = type { %"struct.std::_Tuple_impl.286" }
%"struct.std::_Tuple_impl.286" = type { %"struct.std::_Head_base.289" }
%"struct.std::_Head_base.289" = type { ptr }
%"class.std::unique_ptr.290" = type { %"struct.std::__uniq_ptr_data.291" }
%"struct.std::__uniq_ptr_data.291" = type { %"class.std::__uniq_ptr_impl.292" }
%"class.std::__uniq_ptr_impl.292" = type { %"class.std::tuple.293" }
%"class.std::tuple.293" = type { %"struct.std::_Tuple_impl.294" }
%"struct.std::_Tuple_impl.294" = type { %"struct.std::_Head_base.297" }
%"struct.std::_Head_base.297" = type { ptr }
%"class.std::unique_ptr.298" = type { %"struct.std::__uniq_ptr_data.299" }
%"struct.std::__uniq_ptr_data.299" = type { %"class.std::__uniq_ptr_impl.300" }
%"class.std::__uniq_ptr_impl.300" = type { %"class.std::tuple.301" }
%"class.std::tuple.301" = type { %"struct.std::_Tuple_impl.302" }
%"struct.std::_Tuple_impl.302" = type { %"struct.std::_Head_base.305" }
%"struct.std::_Head_base.305" = type { ptr }
%"class.std::unique_ptr.306" = type { %"struct.std::__uniq_ptr_data.307" }
%"struct.std::__uniq_ptr_data.307" = type { %"class.std::__uniq_ptr_impl.308" }
%"class.std::__uniq_ptr_impl.308" = type { %"class.std::tuple.309" }
%"class.std::tuple.309" = type { %"struct.std::_Tuple_impl.310" }
%"struct.std::_Tuple_impl.310" = type { %"struct.std::_Head_base.313" }
%"struct.std::_Head_base.313" = type { ptr }
%"class.std::unique_ptr.314" = type { %"struct.std::__uniq_ptr_data.315" }
%"struct.std::__uniq_ptr_data.315" = type { %"class.std::__uniq_ptr_impl.316" }
%"class.std::__uniq_ptr_impl.316" = type { %"class.std::tuple.317" }
%"class.std::tuple.317" = type { %"struct.std::_Tuple_impl.318" }
%"struct.std::_Tuple_impl.318" = type { %"struct.std::_Head_base.321" }
%"struct.std::_Head_base.321" = type { ptr }
%"class.std::unique_ptr.322" = type { %"struct.std::__uniq_ptr_data.323" }
%"struct.std::__uniq_ptr_data.323" = type { %"class.std::__uniq_ptr_impl.324" }
%"class.std::__uniq_ptr_impl.324" = type { %"class.std::tuple.325" }
%"class.std::tuple.325" = type { %"struct.std::_Tuple_impl.326" }
%"struct.std::_Tuple_impl.326" = type { %"struct.std::_Head_base.329" }
%"struct.std::_Head_base.329" = type { ptr }
%"class.std::unique_ptr.330" = type { %"struct.std::__uniq_ptr_data.331" }
%"struct.std::__uniq_ptr_data.331" = type { %"class.std::__uniq_ptr_impl.332" }
%"class.std::__uniq_ptr_impl.332" = type { %"class.std::tuple.333" }
%"class.std::tuple.333" = type { %"struct.std::_Tuple_impl.334" }
%"struct.std::_Tuple_impl.334" = type { %"struct.std::_Head_base.337" }
%"struct.std::_Head_base.337" = type { ptr }
%"class.std::unique_ptr.338" = type { %"struct.std::__uniq_ptr_data.339" }
%"struct.std::__uniq_ptr_data.339" = type { %"class.std::__uniq_ptr_impl.340" }
%"class.std::__uniq_ptr_impl.340" = type { %"class.std::tuple.341" }
%"class.std::tuple.341" = type { %"struct.std::_Tuple_impl.342" }
%"struct.std::_Tuple_impl.342" = type { %"struct.std::_Head_base.345" }
%"struct.std::_Head_base.345" = type { ptr }
%"class.std::unique_ptr.346" = type { %"struct.std::__uniq_ptr_data.347" }
%"struct.std::__uniq_ptr_data.347" = type { %"class.std::__uniq_ptr_impl.348" }
%"class.std::__uniq_ptr_impl.348" = type { %"class.std::tuple.349" }
%"class.std::tuple.349" = type { %"struct.std::_Tuple_impl.350" }
%"struct.std::_Tuple_impl.350" = type { %"struct.std::_Head_base.353" }
%"struct.std::_Head_base.353" = type { ptr }
%"struct.cvc5::internal::options::HolderDATATYPES" = type <{ i8, i8, i8, i8, i8, i8, i8, i8, i8, i8, i8, i8, i8, i8, i8, i8, i8, i8, [6 x i8], i64, i8, [3 x i8], i32, i8, i8, i8, i8, i32, i8, [3 x i8], i32, i8, i8, i8, i8, i8, i8, i8, i8 }>

; Function Attrs: mustprogress uwtable
define linkonce_odr hidden void @_ZN4cvc58internal4expr9NodeValue3incEv(ptr noundef nonnull align 8 dereferenceable(24) %0) #4 comdat align 2 {
  %2 = alloca ptr, align 8
  store ptr %0, ptr %2, align 8, !tbaa !386
  %3 = load ptr, ptr %2, align 8
  %4 = load i64, ptr %3, align 8
  %5 = lshr i64 %4, 40
  %6 = and i64 %5, 1048575
  %7 = trunc i64 %6 to i32
  %8 = icmp ult i32 %7, 1048574
  %9 = zext i1 %8 to i64
  %10 = call i64 @llvm.expect.i64(i64 %9, i64 1)
  %11 = icmp ne i64 %10, 0
  br i1 %11, label %12, label %24

12:                                               ; preds = %1
  %13 = load i64, ptr %3, align 8
  %14 = lshr i64 %13, 40
  %15 = and i64 %14, 1048575
  %16 = trunc i64 %15 to i32
  %17 = add i32 %16, 1
  %18 = zext i32 %17 to i64
  %19 = load i64, ptr %3, align 8
  %20 = and i64 %18, 1048575
  %21 = shl i64 %20, 40
  %22 = and i64 %19, -1152920405095219201
  %23 = or i64 %22, %21
  store i64 %23, ptr %3, align 8
  br label %46

24:                                               ; preds = %1
  %25 = load i64, ptr %3, align 8
  %26 = lshr i64 %25, 40
  %27 = and i64 %26, 1048575
  %28 = trunc i64 %27 to i32
  %29 = icmp eq i32 %28, 1048574
  %30 = zext i1 %29 to i64
  %31 = call i64 @llvm.expect.i64(i64 %30, i64 0)
  %32 = icmp ne i64 %31, 0
  br i1 %32, label %33, label %45

33:                                               ; preds = %24
  %34 = load i64, ptr %3, align 8
  %35 = lshr i64 %34, 40
  %36 = and i64 %35, 1048575
  %37 = trunc i64 %36 to i32
  %38 = add i32 %37, 1
  %39 = zext i32 %38 to i64
  %40 = load i64, ptr %3, align 8
  %41 = and i64 %39, 1048575
  %42 = shl i64 %41, 40
  %43 = and i64 %40, -1152920405095219201
  %44 = or i64 %43, %42
  store i64 %44, ptr %3, align 8
  call void @_ZN4cvc58internal4expr9NodeValue20markRefCountMaxedOutEv(ptr noundef nonnull align 8 dereferenceable(24) %3)
  br label %45

45:                                               ; preds = %33, %24
  br label %46

46:                                               ; preds = %45, %12
  ret void
}

; Function Attrs: inlinehint mustprogress uwtable
define linkonce_odr hidden void @_ZN4cvc58internal8TypeNodeC2ERKS1_(ptr noundef nonnull align 8 dereferenceable(8) %0, ptr noundef nonnull align 8 dereferenceable(8) %1) unnamed_addr #9 comdat align 2 {
  %3 = alloca ptr, align 8
  %4 = alloca ptr, align 8
  store ptr %0, ptr %3, align 8, !tbaa !387
  store ptr %1, ptr %4, align 8, !tbaa !387
  %5 = load ptr, ptr %3, align 8
  %6 = load ptr, ptr %4, align 8, !tbaa !387
  %7 = getelementptr inbounds nuw %"class.cvc5::internal::TypeNode", ptr %6, i32 0, i32 0
  %8 = load ptr, ptr %7, align 8, !tbaa !389
  %9 = getelementptr inbounds nuw %"class.cvc5::internal::TypeNode", ptr %5, i32 0, i32 0
  store ptr %8, ptr %9, align 8, !tbaa !389
  %10 = getelementptr inbounds nuw %"class.cvc5::internal::TypeNode", ptr %5, i32 0, i32 0
  %11 = load ptr, ptr %10, align 8, !tbaa !389
  call void @_ZN4cvc58internal4expr9NodeValue3incEv(ptr noundef nonnull align 8 dereferenceable(24) %11)
  ret void
}

; Function Attrs: mustprogress uwtable
define hidden void @_ZNK4cvc58internal6theory9datatypes14SygusExtension19getSelectorInternalENS0_8TypeNodeERKNS0_16DTypeConstructorEm(ptr dead_on_unwind noalias writable sret(%"class.cvc5::internal::NodeTemplate") align 8 %0, ptr noundef nonnull align 8 dereferenceable(1264) %1, ptr noundef %2, ptr noundef nonnull align 8 dereferenceable(264) %3, i64 noundef %4) #4 align 2 personality ptr @__gxx_personality_v0 {
  %6 = alloca ptr, align 8
  %7 = alloca ptr, align 8
  %8 = alloca ptr, align 8
  %9 = alloca ptr, align 8
  %10 = alloca i64, align 8
  %11 = alloca %"class.cvc5::internal::TypeNode", align 8
  %12 = alloca ptr, align 8
  %13 = alloca i32, align 4
  store ptr %0, ptr %6, align 8
  store ptr %1, ptr %7, align 8, !tbaa !3
  store ptr %2, ptr %8, align 8, !tbaa !387
  store ptr %3, ptr %9, align 8, !tbaa !531
  store i64 %4, ptr %10, align 8, !tbaa !353
  %14 = load ptr, ptr %7, align 8
  call void @_ZN4cvc58internal8TypeNodeC2ERKS1_(ptr noundef nonnull align 8 dereferenceable(8) %11, ptr noundef nonnull align 8 dereferenceable(8) %2)
  %15 = load ptr, ptr %9, align 8, !tbaa !531
  %16 = load i64, ptr %10, align 8, !tbaa !353
  %17 = invoke noundef nonnull align 8 dereferenceable(408) ptr @_ZNK4cvc58internal6EnvObj7optionsEv(ptr noundef nonnull align 8 dereferenceable(16) %14)
          to label %18 unwind label %25

18:                                               ; preds = %5
  %19 = getelementptr inbounds nuw %"class.cvc5::internal::Options", ptr %17, i32 0, i32 32
  %20 = load ptr, ptr %19, align 8, !tbaa !129
  %21 = getelementptr inbounds nuw %"struct.cvc5::internal::options::HolderDATATYPES", ptr %20, i32 0, i32 16
  %22 = load i8, ptr %21, align 8, !tbaa !500, !range !318, !noundef !319
  %23 = trunc i8 %22 to i1
  invoke void @_ZN4cvc58internal6theory9datatypes5utils11getSelectorENS0_8TypeNodeERKNS0_16DTypeConstructorEmb(ptr dead_on_unwind writable sret(%"class.cvc5::internal::NodeTemplate") align 8 %0, ptr noundef %11, ptr noundef nonnull align 8 dereferenceable(264) %15, i64 noundef %16, i1 noundef zeroext %23)
          to label %24 unwind label %25

24:                                               ; preds = %18
  call void @_ZN4cvc58internal8TypeNodeD2Ev(ptr noundef nonnull align 8 dereferenceable(8) %11) #3
  ret void

25:                                               ; preds = %18, %5
  %26 = landingpad { ptr, i32 }
          cleanup
  %27 = extractvalue { ptr, i32 } %26, 0
  store ptr %27, ptr %12, align 8
  %28 = extractvalue { ptr, i32 } %26, 1
  store i32 %28, ptr %13, align 4
  call void @_ZN4cvc58internal8TypeNodeD2Ev(ptr noundef nonnull align 8 dereferenceable(8) %11) #3
  br label %29

29:                                               ; preds = %25
  %30 = load ptr, ptr %12, align 8
  %31 = load i32, ptr %13, align 4
  %32 = insertvalue { ptr, i32 } poison, ptr %30, 0
  %33 = insertvalue { ptr, i32 } %32, i32 %31, 1
  resume { ptr, i32 } %33
}