; Function Attrs: mustprogress uwtable
define hidden void @_ZNK4cvc58internal6theory9datatypes14SygusExtension19getSelectorInternalENS0_8TypeNodeERKNS0_16DTypeConstructorEm(ptr dead_on_unwind noalias writable sret(%"class.cvc5::internal::NodeTemplate") align 8 %0, ptr noundef nonnull align 8 dereferenceable(1264) %1, ptr noundef readonly captures(none) %2, ptr noundef nonnull align 8 dereferenceable(264) %3, i64 noundef %4) local_unnamed_addr #3 align 2 personality ptr @__gxx_personality_v0 {
  %6 = alloca %"class.cvc5::internal::TypeNode", align 8
  %7 = load ptr, ptr %2, align 8, !tbaa !349
  store ptr %7, ptr %6, align 8, !tbaa !349
  %8 = load i64, ptr %7, align 8
  %9 = lshr i64 %8, 40
  %10 = trunc nuw nsw i64 %9 to i32
  %11 = and i32 %10, 1048575
  %12 = icmp samesign ult i32 %11, 1048574
  br i1 %12, label %13, label %18, !prof !102

13:                                               ; preds = %5
  %14 = add i64 %8, 1099511627776
  %15 = and i64 %14, 1152920405095219200
  %16 = and i64 %8, -1152920405095219201
  %17 = or disjoint i64 %15, %16
  store i64 %17, ptr %7, align 8
  br label %_ZN4cvc58internal8TypeNodeC2ERKS1_.exit

18:                                               ; preds = %5
  %19 = icmp eq i32 %11, 1048574
  br i1 %19, label %20, label %_ZN4cvc58internal8TypeNodeC2ERKS1_.exit, !prof !101

20:                                               ; preds = %18
  %21 = or i64 %8, 1152920405095219200
  store i64 %21, ptr %7, align 8
  tail call void @_ZN4cvc58internal4expr9NodeValue20markRefCountMaxedOutEv(ptr noundef nonnull align 8 dereferenceable(24) %7)
  br label %_ZN4cvc58internal8TypeNodeC2ERKS1_.exit

_ZN4cvc58internal8TypeNodeC2ERKS1_.exit:          ; preds = %13, %18, %20
  %22 = invoke noundef nonnull align 8 dereferenceable(408) ptr @_ZNK4cvc58internal6EnvObj7optionsEv(ptr noundef nonnull align 8 dereferenceable(16) %1)
          to label %23 unwind label %43

23:                                               ; preds = %_ZN4cvc58internal8TypeNodeC2ERKS1_.exit
  %24 = getelementptr inbounds nuw i8, ptr %22, i64 256
  %25 = load ptr, ptr %24, align 8, !tbaa !136
  %26 = getelementptr inbounds nuw i8, ptr %25, i64 16
  %27 = load i8, ptr %26, align 8, !tbaa !572, !range !325, !noundef !326
  %28 = trunc nuw i8 %27 to i1
  invoke void @_ZN4cvc58internal6theory9datatypes5utils11getSelectorENS0_8TypeNodeERKNS0_16DTypeConstructorEmb(ptr dead_on_unwind writable sret(%"class.cvc5::internal::NodeTemplate") align 8 %0, ptr noundef nonnull %6, ptr noundef nonnull align 8 dereferenceable(264) %3, i64 noundef %4, i1 noundef zeroext %28)
          to label %29 unwind label %43

29:                                               ; preds = %23
  %30 = load ptr, ptr %6, align 8, !tbaa !349
  %31 = load i64, ptr %30, align 8
  %32 = and i64 %31, 1152920405095219200
  %.not.i.i = icmp eq i64 %32, 1152920405095219200
  br i1 %.not.i.i, label %_ZN4cvc58internal8TypeNodeD2Ev.exit, label %33, !prof !101

33:                                               ; preds = %29
  %34 = add i64 %31, 1152920405095219200
  %35 = and i64 %34, 1152920405095219200
  %36 = and i64 %31, -1152920405095219201
  %37 = or disjoint i64 %35, %36
  store i64 %37, ptr %30, align 8
  %38 = icmp eq i64 %35, 0
  br i1 %38, label %39, label %_ZN4cvc58internal8TypeNodeD2Ev.exit, !prof !101

39:                                               ; preds = %33
  invoke void @_ZN4cvc58internal4expr9NodeValue15markForDeletionEv(ptr noundef nonnull align 8 dereferenceable(24) %30)
          to label %_ZN4cvc58internal8TypeNodeD2Ev.exit unwind label %40

40:                                               ; preds = %39
  %41 = landingpad { ptr, i32 }
          catch ptr null
  %42 = extractvalue { ptr, i32 } %41, 0
  call void @__clang_call_terminate(ptr %42) #27
  unreachable

_ZN4cvc58internal8TypeNodeD2Ev.exit:              ; preds = %29, %33, %39
  ret void

43:                                               ; preds = %23, %_ZN4cvc58internal8TypeNodeC2ERKS1_.exit
  %44 = landingpad { ptr, i32 }
          cleanup
  call void @_ZN4cvc58internal8TypeNodeD2Ev(ptr noundef nonnull align 8 dereferenceable(8) %6) #26
  resume { ptr, i32 } %44
}